0005877c T GxPostEvent
00058798 T GxSendEvent
00052bdc T Java_com_gamevil_nexus2_Natives_InitializeJNIGlobalRef
00053014 T Java_com_gamevil_nexus2_Natives_NativeDestroyClet
000530a4 T Java_com_gamevil_nexus2_Natives_NativeInit
00052c2c T Java_com_gamevil_nexus2_Natives_NativeIsNexusOne
00052c28 T Java_com_gamevil_nexus2_Natives_NativeNetTimeOut
00052fa0 T Java_com_gamevil_nexus2_Natives_NativePauseClet
000541e4 T Java_com_gamevil_nexus2_Natives_NativeRender
00053544 T Java_com_gamevil_nexus2_Natives_NativeResize
00052c44 T Java_com_gamevil_nexus2_Natives_NativeResponseIAP
00052f98 T Java_com_gamevil_nexus2_Natives_NativeResumeClet
00052964 T Java_com_gamevil_nexus2_Natives_SetButtonPosition
00052870 T Java_com_gamevil_nexus2_Natives_SetDpadDrawingBlock
00052948 T Java_com_gamevil_nexus2_Natives_SetDpadPosition
000528b8 T Java_com_gamevil_nexus2_Natives_SetShowBackButton
00052888 T Java_com_gamevil_nexus2_Natives_SetShowDirectionButton
000528d0 T Java_com_gamevil_nexus2_Natives_SetShowGameMenuButton
000528e8 T Java_com_gamevil_nexus2_Natives_SetShowMapButton
00052930 T Java_com_gamevil_nexus2_Natives_SetShowResetButton
00052918 T Java_com_gamevil_nexus2_Natives_SetShowSaveButton
000528a0 T Java_com_gamevil_nexus2_Natives_SetShowSelectButton
00052900 T Java_com_gamevil_nexus2_Natives_SetShowSkipButton
00052fa8 T Java_com_gamevil_nexus2_Natives_handleCletEvent
00052c0c T Java_com_gamevil_nexus2_Natives_setInputEvent
00054f40 T MC_grpPostEvent
00054f60 T MC_imHandleInput
00054210 T TrackEventDispatch
000df830 T _Z11KeyMapSound15EnumKeyMapState
00054f3c T _Z13FirePostEventPvS_
00055fdc T _ZN10CGxFrameT114SetEventTargetEP16CGxEventTargetT1
0005612c T _ZN10CGxFrameT17OnEventEiii
000b5c88 T _ZN10CMvMixMenu21MixSelectPopupKeyFuncEPvi
000b6b74 T _ZN10CMvMixMenu8KeyPressE6GsVKey
000de0f4 T _ZN10CMvTimeMgr16AddGameEventTickE17EnumTimeEventType
000865b8 T _ZN10GVUIButton12TouchCancledEii
0008662c T _ZN10GVUIButton13TouchUpInsideEii
000865cc T _ZN10GVUIButton14TouchUpOutSideEii
00086678 T _ZN10GVUIButton9TouchDownEii
00086608 T _ZN10GVUIButton9TouchMoveEii
00086f1c T _ZN10GVUIObject11SetEventKeyEi
00087040 T _ZN10GVUIObject12GetTouchRectEv
00087010 T _ZN10GVUIObject12SetTouchRectE7TGXRECTi
00087064 T _ZN10GVUIObject12TouchCancledEii
00087060 T _ZN10GVUIObject13TouchUpInsideEii
00087068 T _ZN10GVUIObject14TouchUpOutSideEii
00087058 T _ZN10GVUIObject9TouchDownEii
0008705c T _ZN10GVUIObject9TouchMoveEii
00073f68 T _ZN11CGsAutomata11HandleInputEll
00073a6c T _ZN11CGsAutomata13DrawInputModeEiiP8CGxBFontlPc
00073d24 T _ZN11CGsAutomata14HandleInputSubEll
00073fec T _ZN11CGsAutomata14SetCurrentModeE13EnumGsKeyModebb
0007831c T _ZN11CGsInputKey10InitializeEv
00078830 T _ZN11CGsInputKey11GsKey2GxKeyE6GsVKey
000787bc T _ZN11CGsInputKey11GxKey2GsKeyEi
000782d0 T _ZN11CGsInputKey11SetKeyStateE14EnumGsKeyState
000788e0 T _ZN11CGsInputKey11SetPressKeyEi
000782e8 T _ZN11CGsInputKey13SetReleaseKeyEb
0011b210 B _ZN11CGsInputKey19m_bInvertEmulKeypadE
00078608 T _ZN11CGsInputKey20GsKey2GsKeyForNumpadE6GsVKey
00078438 T _ZN11CGsInputKey20GsKey2GxKeyForNumpadE6GsVKey
00078524 T _ZN11CGsInputKey20GxKey2GsKeyForNumpadEi
000786dc T _ZN11CGsInputKey20GxKey2GxKeyForNumpadEi
001017d8 D _ZN11CGsInputKey22m_bNumpadDirKeyMappingE
00078348 T _ZN11CGsInputKey5ClearEv
000783d8 T _ZN11CGsInputKey6UpdateEv
0007825c T _ZN11CGsInputKey7ReleaseEv
00078350 T _ZN11CGsInputKeyC1Ebbm
00078394 T _ZN11CGsInputKeyC2Ebbm
0007892c T _ZN11CGsInputKeyD0Ev
00078260 T _ZN11CGsInputKeyD1Ev
00078298 T _ZN11CGsInputKeyD2Ev
00080128 T _ZN11CGsTouchMgr10CheckSlopeEP12GxPointerPos
0007ffb0 T _ZN11CGsTouchMgr10ClearTouchEv
0008050c T _ZN11CGsTouchMgr10InitializeEii
00080028 T _ZN11CGsTouchMgr10IsSameRectE7TGXRECTih
00080a4c T _ZN11CGsTouchMgr12AddTouchRectEiiiii
0008052c T _ZN11CGsTouchMgr13DrawTouchRectEv
00080ca4 T _ZN11CGsTouchMgr13IwantSkinShipEv
0007ffcc T _ZN11CGsTouchMgr14ClearTouchRectEv
000802a8 T _ZN11CGsTouchMgr14IsPointerOnBoxEP12GxPointerPos7TGXRECT
000802ec T _ZN11CGsTouchMgr14RunTouchScreenEP12GxPointerPosh
0007ff4c T _ZN11CGsTouchMgr14SetKeyMapIndexEPi
000808f4 T _ZN11CGsTouchMgr15AddKeyTouchRectEiiiii
0007fe88 T _ZN11CGsTouchMgr15ClearKeyMapInfoEv
0007ffa0 T _ZN11CGsTouchMgr15SetKeyMapOffsetEii
0007ff1c T _ZN11CGsTouchMgr15SetKeyMapScrollEP15CGsKeymapScroll
00080be4 T _ZN11CGsTouchMgr16SetTouchParticleEPci
0007ffac T _ZN11CGsTouchMgr17CallTouchParticleEii
0008000c T _ZN11CGsTouchMgr17ClearAllTouchRectEv
0007fffc T _ZN11CGsTouchMgr17ClearTouchKeyRectEv
000807b0 T _ZN11CGsTouchMgr17EnableMovePointerE14eActionPointeri
00080944 T _ZN11CGsTouchMgr17SetAllScreenTouchEv
0007fed0 T _ZN11CGsTouchMgr18AllClearKeyMapInfoEv
0008014c T _ZN11CGsTouchMgr18JudgeActionPointerEP12GxPointerPos
0007ff7c T _ZN11CGsTouchMgr18SetNoneKeyMapIndexEv
00080260 T _ZN11CGsTouchMgr6SetPosEP15CGsKeymapScrolli
00080218 T _ZN11CGsTouchMgr6SetPosEP9CGsKeymapi
0007feec T _ZN11CGsTouchMgr9SetKeyMapEP9CGsKeymap
00080c18 T _ZN11CGsTouchMgrC1EPci
00080e20 T _ZN11CGsTouchMgrC1Ev
00080d94 T _ZN11CGsTouchMgrC2EPci
00080e90 T _ZN11CGsTouchMgrC2Ev
00080d54 T _ZN11CGsTouchMgrD0Ev
00080b34 T _ZN11CGsTouchMgrD1Ev
00080b8c T _ZN11CGsTouchMgrD2Ev
000a3f50 T _ZN11CMvItemMenu11ResetKeyMapEv
000a3f7c T _ZN11CMvItemMenu13EquipMountKeyEv
000a6b3c T _ZN11CMvItemMenu16PopupMenuKeyFuncEPvi
000a6aa8 T _ZN11CMvItemMenu17QuickEntryKeyFuncEPvi
000a6a38 T _ZN11CMvItemMenu21DestroyConfirmKeyFuncEPvi
000a6ae0 T _ZN11CMvItemMenu31InvenDifferentEquipPopupKeyFuncEPvi
000a6de4 T _ZN11CMvItemMenu8KeyPressE6GsVKey
000d3450 T _ZN11CMvQuestMgr20QuestETCPopupKeyFuncEPvi
000d48f8 T _ZN11CMvQuestMgr22QuestBeginPopupKeyFuncEPvi
000d455c T _ZN11CMvQuestMgr25QuestCompletePopupKeyFuncEPvi
000d766c T _ZN11CMvShopMenu15BuyPopupKeyFuncEPvi
000d75dc T _ZN11CMvShopMenu16SellPopupKeyFuncEPvi
000d7ed8 T _ZN11CMvShopMenu8KeyPressE6GsVKey
0011b214 V _ZN12CGsSingletonI11CGsInputKeyE13ms_pSingletonE
00078940 W _ZN12CGsSingletonI11CGsInputKeyED0Ev
000788bc W _ZN12CGsSingletonI11CGsInputKeyED1Ev
0011b27c V _ZN12CGsSingletonI11CGsTouchMgrE13ms_pSingletonE
00080d68 W _ZN12CGsSingletonI11CGsTouchMgrED0Ev
000804e8 W _ZN12CGsSingletonI11CGsTouchMgrED1Ev
00083f40 T _ZN12CGsUIPopupUI10RunKeyFuncEi
00083a4c T _ZN12CGsUIPopupUI21IsUseAblDirectioneKeyEi
0008c15c T _ZN12CMvCharacter13OnEventObjectEv
0008c0c0 T _ZN12CMvCharacter14GetMyTouchAreaEii
0008c14c T _ZN12CMvCharacter8SetTouchEb
000930c8 T _ZN12CMvFairyMenu11ResetKeyMapEv
000936a0 T _ZN12CMvFairyMenu8KeyPressE6GsVKey
00097864 W _ZN12CMvGameState10InitKeymapEv
00097868 W _ZN12CMvGameState10OnKeyPressEi
00097c74 T _ZN12CMvGameState11KeyProcGameEv
00097c44 T _ZN12CMvGameState12KeyProcIntroEv
0009786c W _ZN12CMvGameState12OnKeyReleaseEi
00098998 T _ZN12CMvGameState22GameEndingPopupKeyFuncEPvi
000978ec W _ZN12CMvGameState7KeyProcEv
000afae4 T _ZN12CMvMapObject20MilepostPopupKeyFuncEPvi
000b03a8 T _ZN12CMvMapObject7OnEventEv
000b1058 W _ZN12CMvMenuState10InitKeymapEv
000b105c W _ZN12CMvMenuState10OnKeyPressEi
000b1a30 T _ZN12CMvMenuState11DrawIDInputEi
000b53ac T _ZN12CMvMenuState11KeyProcHelpEv
000b4ef4 T _ZN12CMvMenuState11KeyProcMenuEv
000b1060 W _ZN12CMvMenuState12OnKeyReleaseEi
000b3314 T _ZN12CMvMenuState13BackupKeyFuncEPvi
000b53f8 T _ZN12CMvMenuState13KeyProcConfigEv
000b206c T _ZN12CMvMenuState14DrawNewIDInputEv
000b4b34 T _ZN12CMvMenuState14KeyProcIDInputEi
000b32e4 T _ZN12CMvMenuState14RestoreKeyFuncEPvi
000b5244 T _ZN12CMvMenuState15KeyProcGameSlotEv
000b4918 T _ZN12CMvMenuState16ChangeNewIDInputEv
000b4834 T _ZN12CMvMenuState17ExistPopupKeyFuncEPvi
000b4d78 T _ZN12CMvMenuState17KeyProcNewIDInputEv
000b2060 T _ZN12CMvMenuState18DrawInputGroupNameEv
000b51a0 T _ZN12CMvMenuState18KeyProcNetworkMenuEv
000b4af0 T _ZN12CMvMenuState19ConnectPopupKeyFuncEPvi
000b1134 T _ZN12CMvMenuState19EndGamePopupKeyFuncEPvi
000b4a14 T _ZN12CMvMenuState20BackupSuccessKeyFuncEPvi
000b4950 T _ZN12CMvMenuState20ChangeGroupNameInputEv
000b4d6c T _ZN12CMvMenuState20KeyProcBattleIDInputEv
000b4d84 T _ZN12CMvMenuState20KeyProcFriendProposeEv
000b4e58 T _ZN12CMvMenuState20KeyProcRankingResultEv
000b4804 T _ZN12CMvMenuState20NotExistPopupKeyFuncEPvi
000b4988 T _ZN12CMvMenuState21ChangeBattleNameInputEv
000b4d60 T _ZN12CMvMenuState21KeyProcInputGroupNameEv
000b5080 T _ZN12CMvMenuState22KeyProcCreateCharacterEv
000b1120 W _ZN12CMvMenuState7KeyProcEv
000c9220 T _ZN12CMvObjectMgr14CreateEventMobE14EnumFriendTypeii
000d49ec T _ZN12CMvQuestMenu11ResetKeyMapEv
000d4a0c T _ZN12CMvQuestMenu18GiveupPopupKeyFuncEPvi
000d516c T _ZN12CMvQuestMenu8KeyPressE6GsVKey
000d9880 T _ZN12CMvSkillMenu11ResetKeyMapEv
000d9dc8 T _ZN12CMvSkillMenu15MaxSkillKeyFuncEPvi
000d9db0 T _ZN12CMvSkillMenu19LearnedSkillKeyFuncEPvi
000d9a98 T _ZN12CMvSkillMenu21MountQuickSlotKeyFuncEPvi
000d9d98 T _ZN12CMvSkillMenu21UnlearnedSkillKeyFuncEPvi
000d98d8 T _ZN12CMvSkillMenu28KeyPressMoveCursorInSelSkillE6GsVKey
000daac0 T _ZN12CMvSkillMenu8KeyPressE6GsVKey
000dae34 T _ZN12CMvStateMenu11ResetKeyMapEv
000dae68 T _ZN12CMvStateMenu19ConformPopupKeyFuncEPvi
000dc2c4 T _ZN12CMvStateMenu8KeyPressE6GsVKey
000836bc W _ZN13CGsUIPopupObj10KeyPressedEi
00095248 T _ZN13CMvGameScript18Script_EventObjectEP7sScript
000948b8 T _ZN13CMvGameScript19Script_Pause_KeyHitEP7sScript
000d56ec T _ZN13CMvRefineMenu24RefineSelectPopupKeyFuncEPvi
000d58a8 T _ZN13CMvRefineMenu8KeyPressE6GsVKey
000dc614 T _ZN13CMvSystemMenu11ResetKeyMapEv
000dd854 T _ZN13CMvSystemMenu16SavePopupKeyFuncEPvi
000dc654 T _ZN13CMvSystemMenu19EndGamePopupKeyFuncEPvi
000dc648 T _ZN13CMvSystemMenu20ExitGamePopupKeyFuncEPvi
000ddd5c T _ZN13CMvSystemMenu8KeyPressE6GsVKey
000de128 W _ZN13CMvTitleState10InitKeymapEv
000de12c W _ZN13CMvTitleState10OnKeyPressEi
000de29c T _ZN13CMvTitleState12KeyProcTitleEv
000de130 W _ZN13CMvTitleState12OnKeyReleaseEi
000de19c T _ZN13CMvTitleState15DrawPressAnyKeyEv
000de1a0 T _ZN13CMvTitleState16KeyProcZeroGradeEv
000de514 T _ZN13CMvTitleState18keyProcGamevilLogoEv
000de4e4 T _ZN13CMvTitleState20KeyProcCertificationEv
000de234 W _ZN13CMvTitleState7KeyProcEv
00086d04 T _ZN13GVUIEventItem11AttachEventEPS_
00086dec T _ZN13GVUIEventItem12ProcessEventEv
00086cf8 T _ZN13GVUIEventItem8GetEventEv
00086cfc T _ZN13GVUIEventItem8GetParamEv
00086d00 T _ZN13GVUIEventItem8NextNodeEv
00086ce4 T _ZN13GVUIEventItemC1Eii
00086ccc T _ZN13GVUIEventItemC1Ev
00086cd8 T _ZN13GVUIEventItemC2Eii
00086cc0 T _ZN13GVUIEventItemC2Ev
00086cf4 T _ZN13GVUIEventItemD1Ev
00086cf0 T _ZN13GVUIEventItemD2Ev
0008469c T _ZN14CGsUIPopupText10KeyPressedEi
000bdcfc T _ZN14CMvNetworkMenu11ResetKeyMapEv
000bfb38 T _ZN14CMvNetworkMenu12KeyPressMenuEv
000c2c0c T _ZN14CMvNetworkMenu15BuyPopupKeyFuncEPvi
000be498 T _ZN14CMvNetworkMenu15KeyPressBuyItemEv
000c0f54 T _ZN14CMvNetworkMenu16KeyPressCreateIDEv
000bdbb0 T _ZN14CMvNetworkMenu16KeyPressMailDescEv
000c26f8 T _ZN14CMvNetworkMenu16KeyPressMailListEv
000c1c0c T _ZN14CMvNetworkMenu17KeyPressDNoteListEv
000c05d0 T _ZN14CMvNetworkMenu18KeyPressCreateMailEv
000c2508 T _ZN14CMvNetworkMenu18KeyPressPVPConnectE6GsVKey
000c0078 T _ZN14CMvNetworkMenu18KeyPressSelectItemEv
000c2684 T _ZN14CMvNetworkMenu19ConnectPopupKeyFuncEPvi
000c2420 T _ZN14CMvNetworkMenu20AddDNotePopupKeyFuncEPvi
000c22b0 T _ZN14CMvNetworkMenu20KeyPressSearchPlayerEv
000be1f0 T _ZN14CMvNetworkMenu20NetErrorPopupKeyFuncEPvi
000c2578 T _ZN14CMvNetworkMenu21EraseMailPopupKeyFuncEPvi
000c23b8 T _ZN14CMvNetworkMenu21MyPvpDataPopupKeyFuncEPvi
000c24c0 T _ZN14CMvNetworkMenu22RebirthBuyPopupKeyFuncEPvi
000be150 T _ZN14CMvNetworkMenu22RefineFailPopupKeyFuncEPvi
000c29a0 T _ZN14CMvNetworkMenu23PVPAnnouncePopupKeyFuncEPvi
000c1cb8 T _ZN14CMvNetworkMenu24KeyPressSearchPlayerInfoEv
000c2610 T _ZN14CMvNetworkMenu25GetPVPConnectPopupKeyFuncEPvi
000bda80 T _ZN14CMvNetworkMenu26DoSearchPlayerPopupKeyFuncEPvi
000c1bc0 T _ZN14CMvNetworkMenu27DnoteDataUpdatePopupKeyFuncEPvi
000c2480 T _ZN14CMvNetworkMenu31RefineBackScrollBuyPopupKeyFuncEPvi
000bd154 T _ZN14CMvNetworkMenu8KeyPressE6GsVKey
00086d1c T _ZN14GVUIEventQueue10ClearEventEv
00086d90 T _ZN14GVUIEventQueue11GetInstanceEv
0011b2e0 B _ZN14GVUIEventQueue11m_pInstanceE
00086dfc T _ZN14GVUIEventQueue12ConsumeEventEv
00086d5c T _ZN14GVUIEventQueue7DestroyEv
00086dbc T _ZN14GVUIEventQueue8AddEventEii
00086d14 T _ZN14GVUIEventQueueC1Ev
00086d0c T _ZN14GVUIEventQueueC2Ev
00086d44 T _ZN14GVUIEventQueueD1Ev
00086d50 T _ZN14GVUIEventQueueD2Ev
00078e64 T _ZN15CGsKeymapScroll10InitializeEv
00078ecc T _ZN15CGsKeymapScroll10KeyPressedEi
00078e74 T _ZN15CGsKeymapScroll18UpdateViewPositionEv
00078e70 T _ZN15CGsKeymapScroll7ReleaseEv
00078f48 T _ZN15CGsKeymapScrollC1Ev
00078f70 T _ZN15CGsKeymapScrollC2Ev
00078f0c T _ZN15CGsKeymapScrollD0Ev
00078ee4 T _ZN15CGsKeymapScrollD1Ev
00078f20 T _ZN15CGsKeymapScrollD2Ev
00078f98 T _ZN15CGsKeymapStatus10InitializeEv
00078fdc T _ZN15CGsKeymapStatus10KeyPressedEi
00078fa0 T _ZN15CGsKeymapStatus13GetEnableSizeEv
00079078 T _ZN15CGsKeymapStatus13MoveDirectionEi
00078fcc T _ZN15CGsKeymapStatus14GetDisableSizeEv
0007901c T _ZN15CGsKeymapStatus7ReleaseEv
00079030 T _ZN15CGsKeymapStatus8MountKeyEii16EnumGsKeypadTypei
00079190 T _ZN15CGsKeymapStatusC1Ev
000791b8 T _ZN15CGsKeymapStatusC2Ev
00079154 T _ZN15CGsKeymapStatusD0Ev
0007912c T _ZN15CGsKeymapStatusD1Ev
00079168 T _ZN15CGsKeymapStatusD2Ev
00083998 T _ZN15CGsUIPopupCount10KeyPressedEi
0007435c T _ZN16CGsCertification12SetTouchRectER7TGXRECTiiii
0007436c T _ZN16CGsCertification14ClearTouchRectEv
00074430 T _ZN16CGsCertification6GetKeyEv
00074420 T _ZN16CGsCertification8KeyPressEi
0005870c T _ZN16CGxEventTargetT110EvAppStartEv
00058720 T _ZN16CGxEventTargetT110EvKeyPressEi
00058718 T _ZN16CGxEventTargetT111EvAppResumeEv
00058730 T _ZN16CGxEventTargetT112DefEventProcEiii
00058714 T _ZN16CGxEventTargetT112EvAppSuspendEv
00058724 T _ZN16CGxEventTargetT112EvKeyReleaseEi
0005872c T _ZN16CGxEventTargetT112PreEventProcEiii
00058708 T _ZN16CGxEventTargetT113EvPointerMoveEP12GxPointerPos
00058700 T _ZN16CGxEventTargetT114EvPointerPressEP12GxPointerPos
00058748 T _ZN16CGxEventTargetT114SetEventTargetEv
00058704 T _ZN16CGxEventTargetT116EvPointerReleaseEP12GxPointerPos
00058734 T _ZN16CGxEventTargetT117CancelEventTargetEv
0005871c T _ZN16CGxEventTargetT15EvKeyEi
00058728 T _ZN16CGxEventTargetT17EvPaintEv
000585f4 T _ZN16CGxEventTargetT17OnEventEiii
00058710 T _ZN16CGxEventTargetT19EvAppStopEv
000959f4 T _ZN16CMvGameScriptMgr10OnKeyPressE6GsVKey
00087804 T _ZN16GVUIDirectionPad12TouchCancledEii
00087838 T _ZN16GVUIDirectionPad13TouchUpInsideEii
000877d8 T _ZN16GVUIDirectionPad14TouchUpOutSideEii
000877a8 T _ZN16GVUIDirectionPad9TouchDownEii
00087884 T _ZN16GVUIDirectionPad9TouchMoveEii
00087af4 T _ZN16GVUISelectButton13TouchUpInsideEii
00087b30 T _ZN16GVUISelectButton9TouchDownEii
000736f0 W _ZN6CGsApp14EvBackKeyPressEv
00073760 T _ZN6CGsApp7OnEventEiii
000886bc T _ZN6CMvApp10EvKeyPressEi
00088698 T _ZN6CMvApp11SetTouchKeyEi
00088ce4 T _ZN6CMvApp12EvKeyReleaseEi
000883f4 T _ZN6CMvApp14DoKeymapScrollEP9CGsKeymapP11CGsDrawRecti
00088360 T _ZN6CMvApp15CheckKeyGameEndEi
000884a0 T _ZN6CMvApp16DoGsKeymapScrollEP9CGsKeymapP11CGsDrawRectiiib
000885bc T _ZN6CMvApp16DrawTouchClrIconEii
000885b8 T _ZN6CMvApp16DrawTouchClrIconEv
00088364 T _ZN6CMvApp16InitialTouchRectEv
00088568 T _ZN6CMvApp20CalcRectTouchClrIconEv
00088798 T _ZN6CMvApp20CheckPosTouchClrIconE8TGXPOINT
00088374 T _ZN6CMvApp21CheckTouchPointInRectEP11CGsDrawRectbb
000acdf4 T _ZN6CMvMap20EnterBossRoomKeyFuncEPvi
000c36dc T _ZN6CMvNPC7OnEventEv
000a1ed8 T _ZN7CMvItem9IsKeyItemEv
00080818 W _ZN8CGsArrayI10tagKEYRECTE14ExtendCapacityEi
0008085c W _ZN8CGsArrayI10tagKEYRECTE6InsertEiRS0_
00080960 W _ZN8CGsArrayI10tagKEYRECTEC1Ev
00080d40 W _ZN8CGsArrayI10tagKEYRECTED0Ev
00080b08 W _ZN8CGsArrayI10tagKEYRECTED1Ev
0007e720 T _ZN8CGsSound13SetMuteKeytonEhhh
000882dc W _ZN8CGsState12OnKeyReleaseEi
0008897c W _ZN8CGsState13ReleaseKeymapEv
0008257c T _ZN8CGsUIMgr15PopupKeyProcessEi
0009cf4c T _ZN8CMvSayUI10KeyPressedE6GsVKey
0007896c T _ZN9CGsKeymap10InitializeEv
00078c7c T _ZN9CGsKeymap10KeyPressedEi
0011b218 B _ZN9CGsKeymap12m_funcKeyMapE
00078c1c T _ZN9CGsKeymap13GetKeymapTypeEv
00078a1c T _ZN9CGsKeymap13IsHoriRollingEi
00078a38 T _ZN9CGsKeymap13IsVertRollingEi
00078ab0 T _ZN9CGsKeymap13MoveDirectionEi
00078a54 T _ZN9CGsKeymap17UpdateMovableFlagEv
00078aec T _ZN9CGsKeymap4MoveEiii
00078c5c T _ZN9CGsKeymap5ResetEii
000789d8 T _ZN9CGsKeymap7ReleaseEv
00078c34 T _ZN9CGsKeymap8MountKeyEii16EnumGsKeypadTypeih
00078998 T _ZN9CGsKeymapC1Ev
000789b8 T _ZN9CGsKeymapC2Ev
00078e50 T _ZN9CGsKeymapD0Ev
000789dc T _ZN9CGsKeymapD1Ev
000789fc T _ZN9CGsKeymapD2Ev
0007acbc T _ZN9CGsOemIME10OnKeyPressEi
0007a878 T _ZN9CGsOemIME10SetCallOemEPci14EnumOEMKeyModePFvPvS0_iEhhhhS2_
0007a934 T _ZN9CGsOemIME12KeyCommonKeyEv
00079fc8 T _ZN9CGsOemIME12OnKeyReleaseEi
0007aed8 T _ZN9CGsOemIME12SetTouchRectEv
0007aa60 T _ZN9CGsOemIME14KeyKorKeyBoardEv
0007ace8 T _ZN9CGsOemIME15PaintChangeModeE14EnumOEMKeyMode
0007a31c T _ZN9CGsOemIME16GetTextInputTypeEi
0007ad88 T _ZN9CGsOemIME16PaintKorKeyBoardEv
0007ab50 T _ZN9CGsOemIME17KeyEngBigKeyBoardEv
0007aa04 T _ZN9CGsOemIME17KeyNumberKeyBoardEv
0007a6c4 T _ZN9CGsOemIME18KeyKoreaLGKeyBoardEv
0007aab4 T _ZN9CGsOemIME19KeyEngSmallKeyBoardEv
0007ae8c T _ZN9CGsOemIME19PaintEngBigKeyBoardEv
0007adf4 T _ZN9CGsOemIME19PaintNumberKeyBoardEv
0007ae40 T _ZN9CGsOemIME21PaintEngSmallKeyBoardEv
0007a584 T _ZN9CGsOemIME23KeyKoreaGAMEVILKeyBoardEv
0007a600 T _ZN9CGsOemIME23KeyKoreaSAMSUNGKeyBoardEv
0007a018 T _ZN9CGsOemIME28PaintOnlyCurrentModeKeyBoardEv
0009f104 T _ZN9CMvGameUI10OnKeyPressE6GsVKey
0009a0fc T _ZN9CMvGameUI14CreateEventLogEPKcmimm
000998fc T _ZN9CMvGameUI14CreateTouchAniEb
0009c8dc T _ZN9CMvGameUI14ResetAllKeyMapEv
0009983c T _ZN9CMvGameUI17CheckTouchMiniMapEv
0009c5ac T _ZN9CMvGameUI17KeyPressQuickSlotE6GsVKey
0009ba98 T _ZN9CMvGameUI19InnMenuPopupKeyFuncEPvi
0009e460 T _ZN9CMvGameUI22PortalMenuPopupKeyFuncEPvi
0009b8ec T _ZN9CMvGameUI26BlacksmithMenuPopupKeyFuncEPvi
0009b6bc T _ZN9CMvGameUI26TownPortalMenuPopupKeyFuncEPvi
0009af98 T _ZN9CMvGameUI27OnKeyPressMoveWoldMapCursorEv
0009bb44 T _ZN9CMvGameUI27PortalEntryMenuPopupKeyFuncEPvi
0009b978 T _ZN9CMvGameUI29BothPortalConfirmPopupKeyFuncEPvi
0009ba00 T _ZN9CMvGameUI29TownPortalConfirmPopupKeyFuncEPvi
0009a090 T _ZN9CMvGameUI9CreateLogEP11tagEventLogPKcmimm
00089370 W _ZN9CMvObject7OnEventEv
000ceb90 T _ZN9CMvPlayer10OnKeyPressEv
000ce8e0 T _ZN9CMvPlayer11MoveKeyProcE7EnumDir
000c9de4 T _ZN9CMvPlayer14GetMyTouchAreaEii
000c9dd8 T _ZN9CMvPlayer15DoAIAttackTouchEv
000ce58c T _ZN9CMvPlayer16DeadPopupKeyFuncEPvi
000c9ddc T _ZN9CMvPlayer16IsTouchTargetObjEP9CMvObject
000c9de0 T _ZN9CMvPlayer9DoAITouchEv
000fd170 D _ZTV11CGsInputKey
000fd388 D _ZTV11CGsTouchMgr
000fd160 V _ZTV12CGsSingletonI11CGsInputKeyE
000fd378 V _ZTV12CGsSingletonI11CGsTouchMgrE
000fd1a8 D _ZTV15CGsKeymapScroll
000fd1d8 D _ZTV15CGsKeymapStatus
000fc4c0 D _ZTV16CGxEventTargetT1
000fd368 V _ZTV8CGsArrayI10tagKEYRECTE
000fd180 D _ZTV9CGsKeymap
00053804 T getIDFromKeyboard
00054630 T getMoneyFromKeyboard
000546c0 T getMsgFromKeyboard
00053774 T getPWFromKeyboard
000536e4 T getRePWFromKeyboard
00053894 T getTextFromKeyboard
000560ac T handleCletEvent
00053f1c T sendAndroidEvent
00053bdc T showKeyboardForID
0005365c T showKeyboardForMoney
000536a0 T showKeyboardForMsg
00053b98 T showKeyboardForPassword
00053b54 T showKeyboardForRePassword
